; Function Attrs: nounwind uwtable
define noalias nonnull ptr @l___private_Lean_Server_Completion_0__Lean_Server_Completion_filterDuplicateCompletionItems___lambda__1(ptr noundef readonly captures(none) %0) local_unnamed_addr #0 {
  %2 = getelementptr inbounds nuw i8, ptr %0, i64 8
  %3 = load ptr, ptr %2, align 8, !tbaa !10
  %4 = getelementptr inbounds nuw i8, ptr %0, i64 16
  %5 = load ptr, ptr %4, align 8, !tbaa !10
  %6 = getelementptr inbounds nuw i8, ptr %0, i64 24
  %7 = load ptr, ptr %6, align 8, !tbaa !10
  %8 = getelementptr inbounds nuw i8, ptr %0, i64 32
  %9 = load ptr, ptr %8, align 8, !tbaa !10
  %10 = getelementptr inbounds nuw i8, ptr %0, i64 40
  %11 = load ptr, ptr %10, align 8, !tbaa !10
  %12 = getelementptr inbounds nuw i8, ptr %0, i64 64
  %13 = load ptr, ptr %12, align 8, !tbaa !10
  %14 = ptrtoint ptr %7 to i64
  %15 = and i64 %14, 1
  %.not = icmp eq i64 %15, 0
  br i1 %.not, label %16, label %lean_inc.exit37

16:                                               ; preds = %1
  %.val.i = load i32, ptr %7, align 4, !tbaa !4
  %17 = icmp sgt i32 %.val.i, 0
  br i1 %17, label %18, label %20, !prof !9

18:                                               ; preds = %16
  %19 = add nuw i32 %.val.i, 1
  store i32 %19, ptr %7, align 4, !tbaa !4
  br label %lean_inc.exit37

20:                                               ; preds = %16
  %.not.i = icmp eq i32 %.val.i, 0
  br i1 %.not.i, label %lean_inc.exit37, label %21

21:                                               ; preds = %20
  tail call void @lean_inc_ref_cold(ptr noundef nonnull %7) #4
  br label %lean_inc.exit37

lean_inc.exit37:                                  ; preds = %21, %20, %18, %1
  %22 = ptrtoint ptr %13 to i64
  %23 = and i64 %22, 1
  %.not57 = icmp eq i64 %23, 0
  br i1 %.not57, label %24, label %lean_inc.exit36

24:                                               ; preds = %lean_inc.exit37
  %.val.i38 = load i32, ptr %13, align 4, !tbaa !4
  %25 = icmp sgt i32 %.val.i38, 0
  br i1 %25, label %26, label %28, !prof !9

26:                                               ; preds = %24
  %27 = add nuw i32 %.val.i38, 1
  store i32 %27, ptr %13, align 4, !tbaa !4
  br label %lean_inc.exit36

28:                                               ; preds = %24
  %.not.i39 = icmp eq i32 %.val.i38, 0
  br i1 %.not.i39, label %lean_inc.exit36, label %29

29:                                               ; preds = %28
  tail call void @lean_inc_ref_cold(ptr noundef nonnull %13) #4
  br label %lean_inc.exit36

lean_inc.exit36:                                  ; preds = %29, %28, %26, %lean_inc.exit37
  tail call void @lean_inc_heartbeat() #4
  %30 = tail call noalias ptr @mi_malloc_small(i64 noundef 24) #4
  %31 = icmp eq ptr %30, null
  br i1 %31, label %32, label %lean_alloc_ctor.exit

32:                                               ; preds = %lean_inc.exit36
  tail call void @lean_internal_panic_out_of_memory() #5
  unreachable

lean_alloc_ctor.exit:                             ; preds = %lean_inc.exit36
  %33 = getelementptr inbounds nuw i8, ptr %30, i64 4
  store i32 1, ptr %30, align 4, !tbaa !4
  store i32 131096, ptr %33, align 4
  %34 = getelementptr inbounds nuw i8, ptr %30, i64 8
  store ptr %13, ptr %34, align 8, !tbaa !10
  %35 = getelementptr inbounds nuw i8, ptr %30, i64 16
  store ptr %7, ptr %35, align 8, !tbaa !10
  %36 = ptrtoint ptr %9 to i64
  %37 = and i64 %36, 1
  %.not58 = icmp eq i64 %37, 0
  br i1 %.not58, label %38, label %lean_inc.exit35

38:                                               ; preds = %lean_alloc_ctor.exit
  %.val.i41 = load i32, ptr %9, align 4, !tbaa !4
  %39 = icmp sgt i32 %.val.i41, 0
  br i1 %39, label %40, label %42, !prof !9

40:                                               ; preds = %38
  %41 = add nuw i32 %.val.i41, 1
  store i32 %41, ptr %9, align 4, !tbaa !4
  br label %lean_inc.exit35

42:                                               ; preds = %38
  %.not.i42 = icmp eq i32 %.val.i41, 0
  br i1 %.not.i42, label %lean_inc.exit35, label %43

43:                                               ; preds = %42
  tail call void @lean_inc_ref_cold(ptr noundef nonnull %9) #4
  br label %lean_inc.exit35

lean_inc.exit35:                                  ; preds = %43, %42, %40, %lean_alloc_ctor.exit
  tail call void @lean_inc_heartbeat() #4
  %44 = tail call noalias ptr @mi_malloc_small(i64 noundef 24) #4
  %45 = icmp eq ptr %44, null
  br i1 %45, label %46, label %lean_alloc_ctor.exit44

46:                                               ; preds = %lean_inc.exit35
  tail call void @lean_internal_panic_out_of_memory() #5
  unreachable

lean_alloc_ctor.exit44:                           ; preds = %lean_inc.exit35
  %47 = getelementptr inbounds nuw i8, ptr %44, i64 4
  store i32 1, ptr %44, align 4, !tbaa !4
  store i32 131096, ptr %47, align 4
  %48 = getelementptr inbounds nuw i8, ptr %44, i64 8
  store ptr %9, ptr %48, align 8, !tbaa !10
  %49 = getelementptr inbounds nuw i8, ptr %44, i64 16
  store ptr %30, ptr %49, align 8, !tbaa !10
  %50 = ptrtoint ptr %5 to i64
  %51 = and i64 %50, 1
  %.not59 = icmp eq i64 %51, 0
  br i1 %.not59, label %52, label %lean_inc.exit34

52:                                               ; preds = %lean_alloc_ctor.exit44
  %.val.i45 = load i32, ptr %5, align 4, !tbaa !4
  %53 = icmp sgt i32 %.val.i45, 0
  br i1 %53, label %54, label %56, !prof !9

54:                                               ; preds = %52
  %55 = add nuw i32 %.val.i45, 1
  store i32 %55, ptr %5, align 4, !tbaa !4
  br label %lean_inc.exit34

56:                                               ; preds = %52
  %.not.i46 = icmp eq i32 %.val.i45, 0
  br i1 %.not.i46, label %lean_inc.exit34, label %57

57:                                               ; preds = %56
  tail call void @lean_inc_ref_cold(ptr noundef nonnull %5) #4
  br label %lean_inc.exit34

lean_inc.exit34:                                  ; preds = %57, %56, %54, %lean_alloc_ctor.exit44
  tail call void @lean_inc_heartbeat() #4
  %58 = tail call noalias ptr @mi_malloc_small(i64 noundef 24) #4
  %59 = icmp eq ptr %58, null
  br i1 %59, label %60, label %lean_alloc_ctor.exit48

60:                                               ; preds = %lean_inc.exit34
  tail call void @lean_internal_panic_out_of_memory() #5
  unreachable

lean_alloc_ctor.exit48:                           ; preds = %lean_inc.exit34
  %61 = getelementptr inbounds nuw i8, ptr %58, i64 4
  store i32 1, ptr %58, align 4, !tbaa !4
  store i32 131096, ptr %61, align 4
  %62 = getelementptr inbounds nuw i8, ptr %58, i64 8
  store ptr %5, ptr %62, align 8, !tbaa !10
  %63 = getelementptr inbounds nuw i8, ptr %58, i64 16
  store ptr %44, ptr %63, align 8, !tbaa !10
  %64 = ptrtoint ptr %11 to i64
  %65 = and i64 %64, 1
  %.not60 = icmp eq i64 %65, 0
  br i1 %.not60, label %66, label %lean_inc.exit33

66:                                               ; preds = %lean_alloc_ctor.exit48
  %.val.i49 = load i32, ptr %11, align 4, !tbaa !4
  %67 = icmp sgt i32 %.val.i49, 0
  br i1 %67, label %68, label %70, !prof !9

68:                                               ; preds = %66
  %69 = add nuw i32 %.val.i49, 1
  store i32 %69, ptr %11, align 4, !tbaa !4
  br label %lean_inc.exit33

70:                                               ; preds = %66
  %.not.i50 = icmp eq i32 %.val.i49, 0
  br i1 %.not.i50, label %lean_inc.exit33, label %71

71:                                               ; preds = %70
  tail call void @lean_inc_ref_cold(ptr noundef nonnull %11) #4
  br label %lean_inc.exit33

lean_inc.exit33:                                  ; preds = %71, %70, %68, %lean_alloc_ctor.exit48
  tail call void @lean_inc_heartbeat() #4
  %72 = tail call noalias ptr @mi_malloc_small(i64 noundef 24) #4
  %73 = icmp eq ptr %72, null
  br i1 %73, label %74, label %lean_alloc_ctor.exit52

74:                                               ; preds = %lean_inc.exit33
  tail call void @lean_internal_panic_out_of_memory() #5
  unreachable

lean_alloc_ctor.exit52:                           ; preds = %lean_inc.exit33
  %75 = getelementptr inbounds nuw i8, ptr %72, i64 4
  store i32 1, ptr %72, align 4, !tbaa !4
  store i32 131096, ptr %75, align 4
  %76 = getelementptr inbounds nuw i8, ptr %72, i64 8
  store ptr %11, ptr %76, align 8, !tbaa !10
  %77 = getelementptr inbounds nuw i8, ptr %72, i64 16
  store ptr %58, ptr %77, align 8, !tbaa !10
  %78 = ptrtoint ptr %3 to i64
  %79 = and i64 %78, 1
  %.not61 = icmp eq i64 %79, 0
  br i1 %.not61, label %80, label %lean_inc.exit

80:                                               ; preds = %lean_alloc_ctor.exit52
  %.val.i53 = load i32, ptr %3, align 4, !tbaa !4
  %81 = icmp sgt i32 %.val.i53, 0
  br i1 %81, label %82, label %84, !prof !9

82:                                               ; preds = %80
  %83 = add nuw i32 %.val.i53, 1
  store i32 %83, ptr %3, align 4, !tbaa !4
  br label %lean_inc.exit

84:                                               ; preds = %80
  %.not.i54 = icmp eq i32 %.val.i53, 0
  br i1 %.not.i54, label %lean_inc.exit, label %85

85:                                               ; preds = %84
  tail call void @lean_inc_ref_cold(ptr noundef nonnull %3) #4
  br label %lean_inc.exit

lean_inc.exit:                                    ; preds = %85, %84, %82, %lean_alloc_ctor.exit52
  tail call void @lean_inc_heartbeat() #4
  %86 = tail call noalias ptr @mi_malloc_small(i64 noundef 24) #4
  %87 = icmp eq ptr %86, null
  br i1 %87, label %88, label %lean_alloc_ctor.exit56

88:                                               ; preds = %lean_inc.exit
  tail call void @lean_internal_panic_out_of_memory() #5
  unreachable

lean_alloc_ctor.exit56:                           ; preds = %lean_inc.exit
  %89 = getelementptr inbounds nuw i8, ptr %86, i64 4
  store i32 1, ptr %86, align 4, !tbaa !4
  store i32 131096, ptr %89, align 4
  %90 = getelementptr inbounds nuw i8, ptr %86, i64 8
  store ptr %3, ptr %90, align 8, !tbaa !10
  %91 = getelementptr inbounds nuw i8, ptr %86, i64 16
  store ptr %72, ptr %91, align 8, !tbaa !10
  ret ptr %86
}